
main.elf:     file format elf32-avr

Sections:
Idx Name          Size      VMA       LMA       File off  Algn
  0 .text         000001f8  00000000  00000000  00000074  2**1
                  CONTENTS, ALLOC, LOAD, READONLY, CODE
  1 .data         00000002  00800060  000001f8  0000026c  2**0
                  CONTENTS, ALLOC, LOAD, DATA
  2 .debug_aranges 00000020  00000000  00000000  0000026e  2**0
                  CONTENTS, READONLY, DEBUGGING
  3 .debug_pubnames 0000004f  00000000  00000000  0000028e  2**0
                  CONTENTS, READONLY, DEBUGGING
  4 .debug_info   000000d8  00000000  00000000  000002dd  2**0
                  CONTENTS, READONLY, DEBUGGING
  5 .debug_abbrev 0000008b  00000000  00000000  000003b5  2**0
                  CONTENTS, READONLY, DEBUGGING
  6 .debug_line   000002a0  00000000  00000000  00000440  2**0
                  CONTENTS, READONLY, DEBUGGING
  7 .debug_frame  00000050  00000000  00000000  000006e0  2**2
                  CONTENTS, READONLY, DEBUGGING
  8 .debug_str    000000cf  00000000  00000000  00000730  2**0
                  CONTENTS, READONLY, DEBUGGING

Disassembly of section .text:

00000000 <__vectors>:
   0:	0c 94 2a 00 	jmp	0x54	; 0x54 <__ctors_end>
   4:	0c 94 a7 00 	jmp	0x14e	; 0x14e <__vector_1>
   8:	0c 94 c5 00 	jmp	0x18a	; 0x18a <__vector_2>
   c:	0c 94 3f 00 	jmp	0x7e	; 0x7e <__bad_interrupt>
  10:	0c 94 3f 00 	jmp	0x7e	; 0x7e <__bad_interrupt>
  14:	0c 94 3f 00 	jmp	0x7e	; 0x7e <__bad_interrupt>
  18:	0c 94 3f 00 	jmp	0x7e	; 0x7e <__bad_interrupt>
  1c:	0c 94 3f 00 	jmp	0x7e	; 0x7e <__bad_interrupt>
  20:	0c 94 3f 00 	jmp	0x7e	; 0x7e <__bad_interrupt>
  24:	0c 94 3f 00 	jmp	0x7e	; 0x7e <__bad_interrupt>
  28:	0c 94 3f 00 	jmp	0x7e	; 0x7e <__bad_interrupt>
  2c:	0c 94 3f 00 	jmp	0x7e	; 0x7e <__bad_interrupt>
  30:	0c 94 3f 00 	jmp	0x7e	; 0x7e <__bad_interrupt>
  34:	0c 94 3f 00 	jmp	0x7e	; 0x7e <__bad_interrupt>
  38:	0c 94 3f 00 	jmp	0x7e	; 0x7e <__bad_interrupt>
  3c:	0c 94 3f 00 	jmp	0x7e	; 0x7e <__bad_interrupt>
  40:	0c 94 3f 00 	jmp	0x7e	; 0x7e <__bad_interrupt>
  44:	0c 94 3f 00 	jmp	0x7e	; 0x7e <__bad_interrupt>
  48:	0c 94 3f 00 	jmp	0x7e	; 0x7e <__bad_interrupt>
  4c:	0c 94 3f 00 	jmp	0x7e	; 0x7e <__bad_interrupt>
  50:	0c 94 3f 00 	jmp	0x7e	; 0x7e <__bad_interrupt>

00000054 <__ctors_end>:
  54:	11 24       	eor	r1, r1
  56:	1f be       	out	0x3f, r1	; 63
  58:	cf e5       	ldi	r28, 0x5F	; 95
  5a:	d8 e0       	ldi	r29, 0x08	; 8
  5c:	de bf       	out	0x3e, r29	; 62
  5e:	cd bf       	out	0x3d, r28	; 61

00000060 <__do_copy_data>:
  60:	10 e0       	ldi	r17, 0x00	; 0
  62:	a0 e6       	ldi	r26, 0x60	; 96
  64:	b0 e0       	ldi	r27, 0x00	; 0
  66:	e8 ef       	ldi	r30, 0xF8	; 248
  68:	f1 e0       	ldi	r31, 0x01	; 1
  6a:	02 c0       	rjmp	.+4      	; 0x70 <.do_copy_data_start>

0000006c <.do_copy_data_loop>:
  6c:	05 90       	lpm	r0, Z+
  6e:	0d 92       	st	X+, r0

00000070 <.do_copy_data_start>:
  70:	a2 36       	cpi	r26, 0x62	; 98
  72:	b1 07       	cpc	r27, r17
  74:	d9 f7       	brne	.-10     	; 0x6c <.do_copy_data_loop>
  76:	0e 94 df 00 	call	0x1be	; 0x1be <main>
  7a:	0c 94 fa 00 	jmp	0x1f4	; 0x1f4 <_exit>

0000007e <__bad_interrupt>:
  7e:	0c 94 00 00 	jmp	0	; 0x0 <__vectors>

00000082 <wyswietlacz>:
int a=5;

void wyswietlacz(int cyfra) {
  //Instrukcja switch ustawia odpowiednie stany na wyjsciach
  //w zaleznosci od podanej cyfry
  switch (cyfra) {
  82:	84 30       	cpi	r24, 0x04	; 4
  84:	91 05       	cpc	r25, r1
  86:	09 f4       	brne	.+2      	; 0x8a <wyswietlacz+0x8>
  88:	3c c0       	rjmp	.+120    	; 0x102 <wyswietlacz+0x80>
  8a:	85 30       	cpi	r24, 0x05	; 5
  8c:	91 05       	cpc	r25, r1
  8e:	84 f4       	brge	.+32     	; 0xb0 <wyswietlacz+0x2e>
  90:	81 30       	cpi	r24, 0x01	; 1
  92:	91 05       	cpc	r25, r1
  94:	39 f1       	breq	.+78     	; 0xe4 <wyswietlacz+0x62>
  96:	82 30       	cpi	r24, 0x02	; 2
  98:	91 05       	cpc	r25, r1
  9a:	1c f4       	brge	.+6      	; 0xa2 <wyswietlacz+0x20>
  9c:	89 2b       	or	r24, r25
  9e:	d9 f0       	breq	.+54     	; 0xd6 <wyswietlacz+0x54>
  a0:	08 95       	ret
  a2:	82 30       	cpi	r24, 0x02	; 2
  a4:	91 05       	cpc	r25, r1
  a6:	01 f1       	breq	.+64     	; 0xe8 <wyswietlacz+0x66>
  a8:	03 97       	sbiw	r24, 0x03	; 3
  aa:	09 f0       	breq	.+2      	; 0xae <wyswietlacz+0x2c>
  ac:	4f c0       	rjmp	.+158    	; 0x14c <wyswietlacz+0xca>
  ae:	22 c0       	rjmp	.+68     	; 0xf4 <wyswietlacz+0x72>
  b0:	87 30       	cpi	r24, 0x07	; 7
  b2:	91 05       	cpc	r25, r1
  b4:	a1 f1       	breq	.+104    	; 0x11e <wyswietlacz+0x9c>
  b6:	88 30       	cpi	r24, 0x08	; 8
  b8:	91 05       	cpc	r25, r1
  ba:	3c f4       	brge	.+14     	; 0xca <wyswietlacz+0x48>
  bc:	85 30       	cpi	r24, 0x05	; 5
  be:	91 05       	cpc	r25, r1
  c0:	29 f1       	breq	.+74     	; 0x10c <wyswietlacz+0x8a>
  c2:	06 97       	sbiw	r24, 0x06	; 6
  c4:	09 f0       	breq	.+2      	; 0xc8 <wyswietlacz+0x46>
  c6:	42 c0       	rjmp	.+132    	; 0x14c <wyswietlacz+0xca>
  c8:	27 c0       	rjmp	.+78     	; 0x118 <wyswietlacz+0x96>
  ca:	88 30       	cpi	r24, 0x08	; 8
  cc:	91 05       	cpc	r25, r1
  ce:	79 f1       	breq	.+94     	; 0x12e <wyswietlacz+0xac>
  d0:	09 97       	sbiw	r24, 0x09	; 9
  d2:	e1 f5       	brne	.+120    	; 0x14c <wyswietlacz+0xca>
  d4:	34 c0       	rjmp	.+104    	; 0x13e <wyswietlacz+0xbc>
    case 0:
			LED_ON1;
  d6:	d8 9a       	sbi	0x1b, 0	; 27
			LED_ON2;
  d8:	d9 9a       	sbi	0x1b, 1	; 27
			LED_ON3;
  da:	da 9a       	sbi	0x1b, 2	; 27
			LED_ON4;
  dc:	db 9a       	sbi	0x1b, 3	; 27
			LED_ON5;
  de:	dc 9a       	sbi	0x1b, 4	; 27
			LED_ON6;
  e0:	dd 9a       	sbi	0x1b, 5	; 27
  e2:	23 c0       	rjmp	.+70     	; 0x12a <wyswietlacz+0xa8>
			LED_OFF7;
    break; 
    
    case 1:
			LED_OFF1;
  e4:	d8 98       	cbi	0x1b, 0	; 27
  e6:	1c c0       	rjmp	.+56     	; 0x120 <wyswietlacz+0x9e>
			LED_OFF6;
			LED_OFF7;
    break; 
    
    case 2:
			LED_ON1;
  e8:	d8 9a       	sbi	0x1b, 0	; 27
			LED_ON2;
  ea:	d9 9a       	sbi	0x1b, 1	; 27
			LED_OFF3;
  ec:	da 98       	cbi	0x1b, 2	; 27
			LED_ON4;
  ee:	db 9a       	sbi	0x1b, 3	; 27
			LED_ON5;
  f0:	dc 9a       	sbi	0x1b, 4	; 27
  f2:	05 c0       	rjmp	.+10     	; 0xfe <wyswietlacz+0x7c>
			LED_OFF6;
			LED_ON7;
    break; 
    
    case 3:
			LED_ON1;
  f4:	d8 9a       	sbi	0x1b, 0	; 27
			LED_ON2;
  f6:	d9 9a       	sbi	0x1b, 1	; 27
			LED_ON3;
  f8:	da 9a       	sbi	0x1b, 2	; 27
			LED_ON4;
  fa:	db 9a       	sbi	0x1b, 3	; 27
			LED_OFF5;
  fc:	dc 98       	cbi	0x1b, 4	; 27
			LED_OFF6;
  fe:	dd 98       	cbi	0x1b, 5	; 27
 100:	1c c0       	rjmp	.+56     	; 0x13a <wyswietlacz+0xb8>
			LED_ON7;
    break; 
    
    case 4:
			LED_OFF1;
 102:	d8 98       	cbi	0x1b, 0	; 27
			LED_ON2;
 104:	d9 9a       	sbi	0x1b, 1	; 27
			LED_ON3;
 106:	da 9a       	sbi	0x1b, 2	; 27
			LED_OFF4;
 108:	db 98       	cbi	0x1b, 3	; 27
 10a:	04 c0       	rjmp	.+8      	; 0x114 <wyswietlacz+0x92>
			LED_ON7;
			
    break; 
    
    case 5:
			LED_ON1;
 10c:	d8 9a       	sbi	0x1b, 0	; 27
			LED_OFF2;
 10e:	d9 98       	cbi	0x1b, 1	; 27
			LED_ON3;
 110:	da 9a       	sbi	0x1b, 2	; 27
			LED_ON4;
 112:	db 9a       	sbi	0x1b, 3	; 27
			LED_OFF5;
 114:	dc 98       	cbi	0x1b, 4	; 27
 116:	10 c0       	rjmp	.+32     	; 0x138 <wyswietlacz+0xb6>
			LED_ON7;
			
    break; 
    
    case 6:
			LED_ON1;
 118:	d8 9a       	sbi	0x1b, 0	; 27
			LED_OFF2;
 11a:	d9 98       	cbi	0x1b, 1	; 27
 11c:	0a c0       	rjmp	.+20     	; 0x132 <wyswietlacz+0xb0>
			LED_ON6;
			LED_ON7;
    break;
   
    case 7:
			LED_ON1;
 11e:	d8 9a       	sbi	0x1b, 0	; 27
			LED_ON2;
 120:	d9 9a       	sbi	0x1b, 1	; 27
			LED_ON3;
 122:	da 9a       	sbi	0x1b, 2	; 27
			LED_OFF4;
 124:	db 98       	cbi	0x1b, 3	; 27
			LED_OFF5;
 126:	dc 98       	cbi	0x1b, 4	; 27
			LED_OFF6;
 128:	dd 98       	cbi	0x1b, 5	; 27
			LED_OFF7;
 12a:	de 98       	cbi	0x1b, 6	; 27
 12c:	08 95       	ret
    break;
    
    case 8:
			LED_ON1;
 12e:	d8 9a       	sbi	0x1b, 0	; 27
			LED_ON2;
 130:	d9 9a       	sbi	0x1b, 1	; 27
			LED_ON3;
 132:	da 9a       	sbi	0x1b, 2	; 27
			LED_ON4;
 134:	db 9a       	sbi	0x1b, 3	; 27
			LED_ON5;
 136:	dc 9a       	sbi	0x1b, 4	; 27
			LED_ON6;
 138:	dd 9a       	sbi	0x1b, 5	; 27
			LED_ON7;
 13a:	de 9a       	sbi	0x1b, 6	; 27
 13c:	08 95       	ret
    break;
    
    case 9:
			LED_ON1;
 13e:	d8 9a       	sbi	0x1b, 0	; 27
			LED_ON2;
 140:	d9 9a       	sbi	0x1b, 1	; 27
			LED_ON3;
 142:	da 9a       	sbi	0x1b, 2	; 27
			LED_ON4;
 144:	db 9a       	sbi	0x1b, 3	; 27
			LED_OFF5;
 146:	dc 98       	cbi	0x1b, 4	; 27
			LED_ON6;
 148:	dd 9a       	sbi	0x1b, 5	; 27
			LED_ON7;
 14a:	de 9a       	sbi	0x1b, 6	; 27
 14c:	08 95       	ret

0000014e <__vector_1>:
}


ISR(INT0_vect)

{
 14e:	1f 92       	push	r1
 150:	0f 92       	push	r0
 152:	0f b6       	in	r0, 0x3f	; 63
 154:	0f 92       	push	r0
 156:	11 24       	eor	r1, r1
 158:	8f 93       	push	r24
 15a:	9f 93       	push	r25
	if(a==0)
 15c:	80 91 60 00 	lds	r24, 0x0060
 160:	90 91 61 00 	lds	r25, 0x0061
 164:	00 97       	sbiw	r24, 0x00	; 0
 166:	29 f4       	brne	.+10     	; 0x172 <__vector_1+0x24>
	{
		a=a;
 168:	10 92 61 00 	sts	0x0061, r1
 16c:	10 92 60 00 	sts	0x0060, r1
 170:	05 c0       	rjmp	.+10     	; 0x17c <__vector_1+0x2e>
	}
	else
	{
		a--;
 172:	01 97       	sbiw	r24, 0x01	; 1
 174:	90 93 61 00 	sts	0x0061, r25
 178:	80 93 60 00 	sts	0x0060, r24
	}
}
 17c:	9f 91       	pop	r25
 17e:	8f 91       	pop	r24
 180:	0f 90       	pop	r0
 182:	0f be       	out	0x3f, r0	; 63
 184:	0f 90       	pop	r0
 186:	1f 90       	pop	r1
 188:	18 95       	reti

0000018a <__vector_2>:

ISR(INT1_vect)

{
 18a:	1f 92       	push	r1
 18c:	0f 92       	push	r0
 18e:	0f b6       	in	r0, 0x3f	; 63
 190:	0f 92       	push	r0
 192:	11 24       	eor	r1, r1
 194:	8f 93       	push	r24
 196:	9f 93       	push	r25
	if(a==9)
 198:	80 91 60 00 	lds	r24, 0x0060
 19c:	90 91 61 00 	lds	r25, 0x0061
 1a0:	89 30       	cpi	r24, 0x09	; 9
 1a2:	91 05       	cpc	r25, r1
 1a4:	29 f0       	breq	.+10     	; 0x1b0 <__vector_2+0x26>
	{
		a=a;
	}
	else
	{
		a++;
 1a6:	01 96       	adiw	r24, 0x01	; 1
 1a8:	90 93 61 00 	sts	0x0061, r25
 1ac:	80 93 60 00 	sts	0x0060, r24
	}
}
 1b0:	9f 91       	pop	r25
 1b2:	8f 91       	pop	r24
 1b4:	0f 90       	pop	r0
 1b6:	0f be       	out	0x3f, r0	; 63
 1b8:	0f 90       	pop	r0
 1ba:	1f 90       	pop	r1
 1bc:	18 95       	reti

000001be <main>:

int main()
{
	INIT_LED1;
 1be:	d0 9a       	sbi	0x1a, 0	; 26
	INIT_LED2;
 1c0:	d1 9a       	sbi	0x1a, 1	; 26
	INIT_LED3;
 1c2:	d2 9a       	sbi	0x1a, 2	; 26
	INIT_LED4;
 1c4:	d3 9a       	sbi	0x1a, 3	; 26
	INIT_LED5;
 1c6:	d4 9a       	sbi	0x1a, 4	; 26
	INIT_LED6;
 1c8:	d5 9a       	sbi	0x1a, 5	; 26
	INIT_LED7;
 1ca:	d6 9a       	sbi	0x1a, 6	; 26
	
	sei(); //SREG
 1cc:	78 94       	sei
	
	MCUCR |= (1<<ISC01); //zbocze opadaj¹ce - wyzwolenie przerwania
 1ce:	85 b7       	in	r24, 0x35	; 53
 1d0:	82 60       	ori	r24, 0x02	; 2
 1d2:	85 bf       	out	0x35, r24	; 53
	GICR |= (1<<INT0); //aktywacja przerwania
 1d4:	8b b7       	in	r24, 0x3b	; 59
 1d6:	80 64       	ori	r24, 0x40	; 64
 1d8:	8b bf       	out	0x3b, r24	; 59
	
	MCUCR |= (1<<ISC11); //zbocze opadaj¹ce - wyzwolenie przerwania
 1da:	85 b7       	in	r24, 0x35	; 53
 1dc:	88 60       	ori	r24, 0x08	; 8
 1de:	85 bf       	out	0x35, r24	; 53
	GICR |= (1<<INT1); //aktywacja przerwania
 1e0:	8b b7       	in	r24, 0x3b	; 59
 1e2:	80 68       	ori	r24, 0x80	; 128
 1e4:	8b bf       	out	0x3b, r24	; 59
	
	while(1)
	{
		wyswietlacz(a);
 1e6:	80 91 60 00 	lds	r24, 0x0060
 1ea:	90 91 61 00 	lds	r25, 0x0061
 1ee:	0e 94 41 00 	call	0x82	; 0x82 <wyswietlacz>
 1f2:	f9 cf       	rjmp	.-14     	; 0x1e6 <main+0x28>

000001f4 <_exit>:
 1f4:	f8 94       	cli

000001f6 <__stop_program>:
 1f6:	ff cf       	rjmp	.-2      	; 0x1f6 <__stop_program>
