
main.elf:     file format elf32-avr

Sections:
Idx Name          Size      VMA       LMA       File off  Algn
  0 .text         00000388  00000000  00000000  00000094  2**1
                  CONTENTS, ALLOC, LOAD, READONLY, CODE
  1 .data         00000002  00800060  00000388  0000041c  2**0
                  CONTENTS, ALLOC, LOAD, DATA
  2 .bss          00000006  00800062  00800062  0000041e  2**0
                  ALLOC
  3 .debug_aranges 00000020  00000000  00000000  0000041e  2**0
                  CONTENTS, READONLY, DEBUGGING
  4 .debug_pubnames 000000a5  00000000  00000000  0000043e  2**0
                  CONTENTS, READONLY, DEBUGGING
  5 .debug_info   000002d8  00000000  00000000  000004e3  2**0
                  CONTENTS, READONLY, DEBUGGING
  6 .debug_abbrev 00000188  00000000  00000000  000007bb  2**0
                  CONTENTS, READONLY, DEBUGGING
  7 .debug_line   000003bb  00000000  00000000  00000943  2**0
                  CONTENTS, READONLY, DEBUGGING
  8 .debug_frame  00000090  00000000  00000000  00000d00  2**2
                  CONTENTS, READONLY, DEBUGGING
  9 .debug_str    00000159  00000000  00000000  00000d90  2**0
                  CONTENTS, READONLY, DEBUGGING
 10 .debug_loc    00000148  00000000  00000000  00000ee9  2**0
                  CONTENTS, READONLY, DEBUGGING
 11 .debug_ranges 00000048  00000000  00000000  00001031  2**0
                  CONTENTS, READONLY, DEBUGGING

Disassembly of section .text:

00000000 <__vectors>:
   0:	0c 94 2a 00 	jmp	0x54	; 0x54 <__ctors_end>
   4:	0c 94 93 00 	jmp	0x126	; 0x126 <__vector_1>
   8:	0c 94 ab 00 	jmp	0x156	; 0x156 <__vector_2>
   c:	0c 94 47 00 	jmp	0x8e	; 0x8e <__bad_interrupt>
  10:	0c 94 47 00 	jmp	0x8e	; 0x8e <__bad_interrupt>
  14:	0c 94 47 00 	jmp	0x8e	; 0x8e <__bad_interrupt>
  18:	0c 94 47 00 	jmp	0x8e	; 0x8e <__bad_interrupt>
  1c:	0c 94 47 00 	jmp	0x8e	; 0x8e <__bad_interrupt>
  20:	0c 94 47 00 	jmp	0x8e	; 0x8e <__bad_interrupt>
  24:	0c 94 47 00 	jmp	0x8e	; 0x8e <__bad_interrupt>
  28:	0c 94 47 00 	jmp	0x8e	; 0x8e <__bad_interrupt>
  2c:	0c 94 c4 00 	jmp	0x188	; 0x188 <__vector_11>
  30:	0c 94 47 00 	jmp	0x8e	; 0x8e <__bad_interrupt>
  34:	0c 94 47 00 	jmp	0x8e	; 0x8e <__bad_interrupt>
  38:	0c 94 47 00 	jmp	0x8e	; 0x8e <__bad_interrupt>
  3c:	0c 94 47 00 	jmp	0x8e	; 0x8e <__bad_interrupt>
  40:	0c 94 47 00 	jmp	0x8e	; 0x8e <__bad_interrupt>
  44:	0c 94 47 00 	jmp	0x8e	; 0x8e <__bad_interrupt>
  48:	0c 94 47 00 	jmp	0x8e	; 0x8e <__bad_interrupt>
  4c:	0c 94 47 00 	jmp	0x8e	; 0x8e <__bad_interrupt>
  50:	0c 94 47 00 	jmp	0x8e	; 0x8e <__bad_interrupt>

00000054 <__ctors_end>:
  54:	11 24       	eor	r1, r1
  56:	1f be       	out	0x3f, r1	; 63
  58:	cf e5       	ldi	r28, 0x5F	; 95
  5a:	d8 e0       	ldi	r29, 0x08	; 8
  5c:	de bf       	out	0x3e, r29	; 62
  5e:	cd bf       	out	0x3d, r28	; 61

00000060 <__do_copy_data>:
  60:	10 e0       	ldi	r17, 0x00	; 0
  62:	a0 e6       	ldi	r26, 0x60	; 96
  64:	b0 e0       	ldi	r27, 0x00	; 0
  66:	e8 e8       	ldi	r30, 0x88	; 136
  68:	f3 e0       	ldi	r31, 0x03	; 3
  6a:	02 c0       	rjmp	.+4      	; 0x70 <.do_copy_data_start>

0000006c <.do_copy_data_loop>:
  6c:	05 90       	lpm	r0, Z+
  6e:	0d 92       	st	X+, r0

00000070 <.do_copy_data_start>:
  70:	a2 36       	cpi	r26, 0x62	; 98
  72:	b1 07       	cpc	r27, r17
  74:	d9 f7       	brne	.-10     	; 0x6c <.do_copy_data_loop>

00000076 <__do_clear_bss>:
  76:	10 e0       	ldi	r17, 0x00	; 0
  78:	a2 e6       	ldi	r26, 0x62	; 98
  7a:	b0 e0       	ldi	r27, 0x00	; 0
  7c:	01 c0       	rjmp	.+2      	; 0x80 <.do_clear_bss_start>

0000007e <.do_clear_bss_loop>:
  7e:	1d 92       	st	X+, r1

00000080 <.do_clear_bss_start>:
  80:	a8 36       	cpi	r26, 0x68	; 104
  82:	b1 07       	cpc	r27, r17
  84:	e1 f7       	brne	.-8      	; 0x7e <.do_clear_bss_loop>
  86:	0e 94 13 01 	call	0x226	; 0x226 <main>
  8a:	0c 94 c2 01 	jmp	0x384	; 0x384 <_exit>

0000008e <__bad_interrupt>:
  8e:	0c 94 00 00 	jmp	0	; 0x0 <__vectors>

00000092 <init_7_seg>:
int stop = 0;
int start = 0;

void init_7_seg()
{
  DDRB = 0x7F;
  92:	8f e7       	ldi	r24, 0x7F	; 127
  94:	87 bb       	out	0x17, r24	; 23
  PORTB = 0X00;
  96:	18 ba       	out	0x18, r1	; 24
}
  98:	08 95       	ret

0000009a <clear_display>:
void clear_display()
{
	PORTB = 0X00;
  9a:	18 ba       	out	0x18, r1	; 24
}
  9c:	08 95       	ret

0000009e <display_number>:

void display_number(int no)
{
  switch(no)
  9e:	84 30       	cpi	r24, 0x04	; 4
  a0:	91 05       	cpc	r25, r1
  a2:	61 f1       	breq	.+88     	; 0xfc <display_number+0x5e>
  a4:	85 30       	cpi	r24, 0x05	; 5
  a6:	91 05       	cpc	r25, r1
  a8:	7c f4       	brge	.+30     	; 0xc8 <display_number+0x2a>
  aa:	81 30       	cpi	r24, 0x01	; 1
  ac:	91 05       	cpc	r25, r1
  ae:	01 f1       	breq	.+64     	; 0xf0 <display_number+0x52>
  b0:	82 30       	cpi	r24, 0x02	; 2
  b2:	91 05       	cpc	r25, r1
  b4:	1c f4       	brge	.+6      	; 0xbc <display_number+0x1e>
  b6:	89 2b       	or	r24, r25
  b8:	c9 f0       	breq	.+50     	; 0xec <display_number+0x4e>
  ba:	08 95       	ret
  bc:	82 30       	cpi	r24, 0x02	; 2
  be:	91 05       	cpc	r25, r1
  c0:	c9 f0       	breq	.+50     	; 0xf4 <display_number+0x56>
  c2:	03 97       	sbiw	r24, 0x03	; 3
  c4:	41 f5       	brne	.+80     	; 0x116 <display_number+0x78>
  c6:	18 c0       	rjmp	.+48     	; 0xf8 <display_number+0x5a>
  c8:	87 30       	cpi	r24, 0x07	; 7
  ca:	91 05       	cpc	r25, r1
  cc:	e9 f0       	breq	.+58     	; 0x108 <display_number+0x6a>
  ce:	88 30       	cpi	r24, 0x08	; 8
  d0:	91 05       	cpc	r25, r1
  d2:	34 f4       	brge	.+12     	; 0xe0 <display_number+0x42>
  d4:	85 30       	cpi	r24, 0x05	; 5
  d6:	91 05       	cpc	r25, r1
  d8:	99 f0       	breq	.+38     	; 0x100 <display_number+0x62>
  da:	06 97       	sbiw	r24, 0x06	; 6
  dc:	e1 f4       	brne	.+56     	; 0x116 <display_number+0x78>
  de:	12 c0       	rjmp	.+36     	; 0x104 <display_number+0x66>
  e0:	88 30       	cpi	r24, 0x08	; 8
  e2:	91 05       	cpc	r25, r1
  e4:	99 f0       	breq	.+38     	; 0x10c <display_number+0x6e>
  e6:	09 97       	sbiw	r24, 0x09	; 9
  e8:	b1 f4       	brne	.+44     	; 0x116 <display_number+0x78>
  ea:	13 c0       	rjmp	.+38     	; 0x112 <display_number+0x74>
  {
	case 0:
		PORTB = ZERO;
  ec:	8f e3       	ldi	r24, 0x3F	; 63
  ee:	0f c0       	rjmp	.+30     	; 0x10e <display_number+0x70>
		break;
	case 1:
		PORTB = ONE;
  f0:	86 e0       	ldi	r24, 0x06	; 6
  f2:	0d c0       	rjmp	.+26     	; 0x10e <display_number+0x70>
		break;
	case 2:
		PORTB = TWO;
  f4:	8b e5       	ldi	r24, 0x5B	; 91
  f6:	0b c0       	rjmp	.+22     	; 0x10e <display_number+0x70>
		break;
	case 3:
		PORTB = THREE;
  f8:	8f e4       	ldi	r24, 0x4F	; 79
  fa:	09 c0       	rjmp	.+18     	; 0x10e <display_number+0x70>
		break;
	case 4:
		PORTB = FOUR;
  fc:	86 e6       	ldi	r24, 0x66	; 102
  fe:	07 c0       	rjmp	.+14     	; 0x10e <display_number+0x70>
		break;
	case 5:
		PORTB = FIVE;
 100:	8d e6       	ldi	r24, 0x6D	; 109
 102:	05 c0       	rjmp	.+10     	; 0x10e <display_number+0x70>
		break;
	case 6:
		PORTB = SIX;
 104:	8d e7       	ldi	r24, 0x7D	; 125
 106:	03 c0       	rjmp	.+6      	; 0x10e <display_number+0x70>
		break;
	case 7:
		PORTB = SEVEN;
 108:	87 e0       	ldi	r24, 0x07	; 7
 10a:	01 c0       	rjmp	.+2      	; 0x10e <display_number+0x70>
		break;
	case 8:
		PORTB = EIGHT;
 10c:	8f e7       	ldi	r24, 0x7F	; 127
 10e:	88 bb       	out	0x18, r24	; 24
 110:	08 95       	ret
		break;
	case 9:
		PORTB = NINE;
 112:	8f e6       	ldi	r24, 0x6F	; 111
 114:	88 bb       	out	0x18, r24	; 24
 116:	08 95       	ret

00000118 <Pomiar>:
}


int Pomiar(void)
{
	ADCSRA |= (1<<ADSC); // START KONWERSJI
 118:	36 9a       	sbi	0x06, 6	; 6
	while(ADCSRA & (1<<ADSC));
 11a:	36 99       	sbic	0x06, 6	; 6
 11c:	fe cf       	rjmp	.-4      	; 0x11a <Pomiar+0x2>
	return ADC;
 11e:	24 b1       	in	r18, 0x04	; 4
 120:	35 b1       	in	r19, 0x05	; 5
}
 122:	c9 01       	movw	r24, r18
 124:	08 95       	ret

00000126 <__vector_1>:

ISR(INT0_vect)

{
 126:	1f 92       	push	r1
 128:	0f 92       	push	r0
 12a:	0f b6       	in	r0, 0x3f	; 63
 12c:	0f 92       	push	r0
 12e:	11 24       	eor	r1, r1
 130:	8f 93       	push	r24
 132:	9f 93       	push	r25
	stop = 0;
 134:	10 92 63 00 	sts	0x0063, r1
 138:	10 92 62 00 	sts	0x0062, r1
	start = 1;
 13c:	81 e0       	ldi	r24, 0x01	; 1
 13e:	90 e0       	ldi	r25, 0x00	; 0
 140:	90 93 65 00 	sts	0x0065, r25
 144:	80 93 64 00 	sts	0x0064, r24
	
}
 148:	9f 91       	pop	r25
 14a:	8f 91       	pop	r24
 14c:	0f 90       	pop	r0
 14e:	0f be       	out	0x3f, r0	; 63
 150:	0f 90       	pop	r0
 152:	1f 90       	pop	r1
 154:	18 95       	reti

00000156 <__vector_2>:

ISR(INT1_vect)

{
 156:	1f 92       	push	r1
 158:	0f 92       	push	r0
 15a:	0f b6       	in	r0, 0x3f	; 63
 15c:	0f 92       	push	r0
 15e:	11 24       	eor	r1, r1
 160:	8f 93       	push	r24
 162:	9f 93       	push	r25
	stop = 1;
 164:	81 e0       	ldi	r24, 0x01	; 1
 166:	90 e0       	ldi	r25, 0x00	; 0
 168:	90 93 63 00 	sts	0x0063, r25
 16c:	80 93 62 00 	sts	0x0062, r24
	start = 0;
 170:	10 92 65 00 	sts	0x0065, r1
 174:	10 92 64 00 	sts	0x0064, r1
	PORTA &= ~(1<<PA0);
 178:	d8 98       	cbi	0x1b, 0	; 27
	
}
 17a:	9f 91       	pop	r25
 17c:	8f 91       	pop	r24
 17e:	0f 90       	pop	r0
 180:	0f be       	out	0x3f, r0	; 63
 182:	0f 90       	pop	r0
 184:	1f 90       	pop	r1
 186:	18 95       	reti

00000188 <__vector_11>:

ISR(TIMER0_OVF_vect)
{	
 188:	1f 92       	push	r1
 18a:	0f 92       	push	r0
 18c:	0f b6       	in	r0, 0x3f	; 63
 18e:	0f 92       	push	r0
 190:	11 24       	eor	r1, r1
 192:	2f 93       	push	r18
 194:	3f 93       	push	r19
 196:	8f 93       	push	r24
 198:	9f 93       	push	r25
	static int counter = 250;
	TCNT0 = 5;
 19a:	85 e0       	ldi	r24, 0x05	; 5
 19c:	82 bf       	out	0x32, r24	; 50
	if(!counter--)
 19e:	80 91 60 00 	lds	r24, 0x0060
 1a2:	90 91 61 00 	lds	r25, 0x0061
 1a6:	01 97       	sbiw	r24, 0x01	; 1
 1a8:	90 93 61 00 	sts	0x0061, r25
 1ac:	80 93 60 00 	sts	0x0060, r24
 1b0:	01 96       	adiw	r24, 0x01	; 1
 1b2:	81 f5       	brne	.+96     	; 0x214 <__vector_11+0x8c>
	{
		if(start&&timer)
 1b4:	20 91 64 00 	lds	r18, 0x0064
 1b8:	30 91 65 00 	lds	r19, 0x0065
 1bc:	21 15       	cp	r18, r1
 1be:	31 05       	cpc	r19, r1
 1c0:	59 f0       	breq	.+22     	; 0x1d8 <__vector_11+0x50>
 1c2:	80 91 66 00 	lds	r24, 0x0066
 1c6:	90 91 67 00 	lds	r25, 0x0067
 1ca:	00 97       	sbiw	r24, 0x00	; 0
 1cc:	29 f0       	breq	.+10     	; 0x1d8 <__vector_11+0x50>
			timer--;
 1ce:	01 97       	sbiw	r24, 0x01	; 1
 1d0:	90 93 67 00 	sts	0x0067, r25
 1d4:	80 93 66 00 	sts	0x0066, r24
		counter=250;
 1d8:	8a ef       	ldi	r24, 0xFA	; 250
 1da:	90 e0       	ldi	r25, 0x00	; 0
 1dc:	90 93 61 00 	sts	0x0061, r25
 1e0:	80 93 60 00 	sts	0x0060, r24
		
		if(timer==0&&start==1&&stop==0)
 1e4:	80 91 66 00 	lds	r24, 0x0066
 1e8:	90 91 67 00 	lds	r25, 0x0067
 1ec:	89 2b       	or	r24, r25
 1ee:	91 f4       	brne	.+36     	; 0x214 <__vector_11+0x8c>
 1f0:	21 30       	cpi	r18, 0x01	; 1
 1f2:	31 05       	cpc	r19, r1
 1f4:	79 f4       	brne	.+30     	; 0x214 <__vector_11+0x8c>
 1f6:	80 91 62 00 	lds	r24, 0x0062
 1fa:	90 91 63 00 	lds	r25, 0x0063
 1fe:	89 2b       	or	r24, r25
 200:	49 f4       	brne	.+18     	; 0x214 <__vector_11+0x8c>
		{
			stop = 1;
 202:	30 93 63 00 	sts	0x0063, r19
 206:	20 93 62 00 	sts	0x0062, r18
			start = 0;
 20a:	10 92 65 00 	sts	0x0065, r1
 20e:	10 92 64 00 	sts	0x0064, r1
			PORTA |= 1<<PA0;
 212:	d8 9a       	sbi	0x1b, 0	; 27
		}
		
	}	
}
 214:	9f 91       	pop	r25
 216:	8f 91       	pop	r24
 218:	3f 91       	pop	r19
 21a:	2f 91       	pop	r18
 21c:	0f 90       	pop	r0
 21e:	0f be       	out	0x3f, r0	; 63
 220:	0f 90       	pop	r0
 222:	1f 90       	pop	r1
 224:	18 95       	reti

00000226 <main>:


int main()
{
 226:	af 92       	push	r10
 228:	bf 92       	push	r11
 22a:	cf 92       	push	r12
 22c:	df 92       	push	r13
 22e:	ef 92       	push	r14
 230:	ff 92       	push	r15
 232:	0f 93       	push	r16
 234:	1f 93       	push	r17
 236:	cf 93       	push	r28
 238:	df 93       	push	r29
	int a,b,c;
	
	ADMUX |= (1<< REFS0); //ustawienie napiecia ref na napiecie zasilania
 23a:	3e 9a       	sbi	0x07, 6	; 7
	ADMUX |= ((1<< MUX0) | (1<< MUX1) | (1<< MUX2)); //WYBOR KANA£U ADC -> ADC7
 23c:	87 b1       	in	r24, 0x07	; 7
 23e:	87 60       	ori	r24, 0x07	; 7
 240:	87 b9       	out	0x07, r24	; 7

	ADCSRA |= (1<<ADEN); //URUCHOMIENIE PRZETWORNIKA ADC
 242:	37 9a       	sbi	0x06, 7	; 6
	ADCSRA |= ((1<<ADPS0) | (1<<ADPS1)); // USTAWIENIE PRESKALERA NA 8 
 244:	86 b1       	in	r24, 0x06	; 6
 246:	83 60       	ori	r24, 0x03	; 3
 248:	86 b9       	out	0x06, r24	; 6
	
	sei(); //SREG
 24a:	78 94       	sei
	
	MCUCR |= (1<<ISC01); //zbocze opadaj¹ce - wyzwolenie przerwania
 24c:	85 b7       	in	r24, 0x35	; 53
 24e:	82 60       	ori	r24, 0x02	; 2
 250:	85 bf       	out	0x35, r24	; 53
	GICR |= (1<<INT0); //aktywacja przerwania
 252:	8b b7       	in	r24, 0x3b	; 59
 254:	80 64       	ori	r24, 0x40	; 64
 256:	8b bf       	out	0x3b, r24	; 59
	
	MCUCR |= (1<<ISC11); //zbocze opadaj¹ce - wyzwolenie przerwania
 258:	85 b7       	in	r24, 0x35	; 53
 25a:	88 60       	ori	r24, 0x08	; 8
 25c:	85 bf       	out	0x35, r24	; 53
	GICR |= (1<<INT1); //aktywacja przerwania
 25e:	8b b7       	in	r24, 0x3b	; 59
 260:	80 68       	ori	r24, 0x80	; 128
 262:	8b bf       	out	0x3b, r24	; 59
	
	DDRA |= 1 << PA0;
 264:	d0 9a       	sbi	0x1a, 0	; 26
	DDRC |= 0x0F;
 266:	84 b3       	in	r24, 0x14	; 20
 268:	8f 60       	ori	r24, 0x0F	; 15
 26a:	84 bb       	out	0x14, r24	; 20
	
	TCCR0 |= (1<<CS02);	//preskaler na 256
 26c:	83 b7       	in	r24, 0x33	; 51
 26e:	84 60       	ori	r24, 0x04	; 4
 270:	83 bf       	out	0x33, r24	; 51
	TCNT0 = 5;				//wartoœæ pocz¹tkowa licznika na 5 (liczymy o 5 do 255)
 272:	85 e0       	ldi	r24, 0x05	; 5
 274:	82 bf       	out	0x32, r24	; 50
	TIMSK |= (1<<TOIE0);	//w³¹czenie przerwañ	
 276:	89 b7       	in	r24, 0x39	; 57
 278:	81 60       	ori	r24, 0x01	; 1
 27a:	89 bf       	out	0x39, r24	; 57
int stop = 0;
int start = 0;

void init_7_seg()
{
  DDRB = 0x7F;
 27c:	8f e7       	ldi	r24, 0x7F	; 127
 27e:	87 bb       	out	0x17, r24	; 23
  PORTB = 0X00;
 280:	18 ba       	out	0x18, r1	; 24
		if(!start)
		{
			timer = Pomiar()/10; 
			if(timer>100)
			{
				timer=100;
 282:	94 e6       	ldi	r25, 0x64	; 100
 284:	a9 2e       	mov	r10, r25
 286:	b1 2c       	mov	r11, r1
    milliseconds can be achieved.
 */
void
_delay_loop_2(uint16_t __count)
{
	__asm__ volatile (
 288:	c0 e0       	ldi	r28, 0x00	; 0
 28a:	da ef       	ldi	r29, 0xFA	; 250
		_delay_ms(16);
		clear_display();
		PORTC &= ~(1<<PC3);
		
		PORTC |= 1<<PC2;
		display_number(b);
 28c:	8c e9       	ldi	r24, 0x9C	; 156
 28e:	c8 2e       	mov	r12, r24
 290:	8f ef       	ldi	r24, 0xFF	; 255
 292:	d8 2e       	mov	r13, r24
	
	init_7_seg();

	while(1)
	{
		if(!start)
 294:	80 91 64 00 	lds	r24, 0x0064
 298:	90 91 65 00 	lds	r25, 0x0065
 29c:	89 2b       	or	r24, r25
 29e:	a1 f4       	brne	.+40     	; 0x2c8 <main+0xa2>
}


int Pomiar(void)
{
	ADCSRA |= (1<<ADSC); // START KONWERSJI
 2a0:	36 9a       	sbi	0x06, 6	; 6
	while(ADCSRA & (1<<ADSC));
 2a2:	36 99       	sbic	0x06, 6	; 6
 2a4:	fe cf       	rjmp	.-4      	; 0x2a2 <main+0x7c>
	return ADC;
 2a6:	84 b1       	in	r24, 0x04	; 4
 2a8:	95 b1       	in	r25, 0x05	; 5

	while(1)
	{
		if(!start)
		{
			timer = Pomiar()/10; 
 2aa:	6a e0       	ldi	r22, 0x0A	; 10
 2ac:	70 e0       	ldi	r23, 0x00	; 0
 2ae:	0e 94 9b 01 	call	0x336	; 0x336 <__divmodhi4>
 2b2:	70 93 67 00 	sts	0x0067, r23
 2b6:	60 93 66 00 	sts	0x0066, r22
			if(timer>100)
 2ba:	65 36       	cpi	r22, 0x65	; 101
 2bc:	71 05       	cpc	r23, r1
 2be:	24 f0       	brlt	.+8      	; 0x2c8 <main+0xa2>
			{
				timer=100;
 2c0:	b0 92 67 00 	sts	0x0067, r11
 2c4:	a0 92 66 00 	sts	0x0066, r10
			}
		}
		
		a = timer/100; 
 2c8:	e0 90 66 00 	lds	r14, 0x0066
 2cc:	f0 90 67 00 	lds	r15, 0x0067
 2d0:	c7 01       	movw	r24, r14
 2d2:	64 e6       	ldi	r22, 0x64	; 100
 2d4:	70 e0       	ldi	r23, 0x00	; 0
 2d6:	0e 94 9b 01 	call	0x336	; 0x336 <__divmodhi4>
 2da:	8b 01       	movw	r16, r22
		b = (timer-a*100)/10; 
		c = timer % 10; 
		
		PORTC |= 1<<PC3;
 2dc:	ab 9a       	sbi	0x15, 3	; 21
		display_number(a);
 2de:	cb 01       	movw	r24, r22
 2e0:	0e 94 4f 00 	call	0x9e	; 0x9e <display_number>
 2e4:	ce 01       	movw	r24, r28
 2e6:	01 97       	sbiw	r24, 0x01	; 1
 2e8:	f1 f7       	brne	.-4      	; 0x2e6 <main+0xc0>
  DDRB = 0x7F;
  PORTB = 0X00;
}
void clear_display()
{
	PORTB = 0X00;
 2ea:	18 ba       	out	0x18, r1	; 24
		
		PORTC |= 1<<PC3;
		display_number(a);
		_delay_ms(16);
		clear_display();
		PORTC &= ~(1<<PC3);
 2ec:	ab 98       	cbi	0x15, 3	; 21
		
		PORTC |= 1<<PC2;
 2ee:	aa 9a       	sbi	0x15, 2	; 21
		display_number(b);
 2f0:	0c 9d       	mul	r16, r12
 2f2:	c0 01       	movw	r24, r0
 2f4:	0d 9d       	mul	r16, r13
 2f6:	90 0d       	add	r25, r0
 2f8:	1c 9d       	mul	r17, r12
 2fa:	90 0d       	add	r25, r0
 2fc:	11 24       	eor	r1, r1
 2fe:	8e 0d       	add	r24, r14
 300:	9f 1d       	adc	r25, r15
 302:	6a e0       	ldi	r22, 0x0A	; 10
 304:	70 e0       	ldi	r23, 0x00	; 0
 306:	0e 94 9b 01 	call	0x336	; 0x336 <__divmodhi4>
 30a:	cb 01       	movw	r24, r22
 30c:	0e 94 4f 00 	call	0x9e	; 0x9e <display_number>
 310:	ce 01       	movw	r24, r28
 312:	01 97       	sbiw	r24, 0x01	; 1
 314:	f1 f7       	brne	.-4      	; 0x312 <main+0xec>
  DDRB = 0x7F;
  PORTB = 0X00;
}
void clear_display()
{
	PORTB = 0X00;
 316:	18 ba       	out	0x18, r1	; 24
		
		PORTC |= 1<<PC2;
		display_number(b);
		_delay_ms(16);
		clear_display();
		PORTC &= ~(1<<PC2);
 318:	aa 98       	cbi	0x15, 2	; 21
		
		PORTC |= 1<<PC1;
 31a:	a9 9a       	sbi	0x15, 1	; 21
		display_number(c);
 31c:	c7 01       	movw	r24, r14
 31e:	6a e0       	ldi	r22, 0x0A	; 10
 320:	70 e0       	ldi	r23, 0x00	; 0
 322:	0e 94 9b 01 	call	0x336	; 0x336 <__divmodhi4>
 326:	0e 94 4f 00 	call	0x9e	; 0x9e <display_number>
 32a:	ce 01       	movw	r24, r28
 32c:	01 97       	sbiw	r24, 0x01	; 1
 32e:	f1 f7       	brne	.-4      	; 0x32c <main+0x106>
  DDRB = 0x7F;
  PORTB = 0X00;
}
void clear_display()
{
	PORTB = 0X00;
 330:	18 ba       	out	0x18, r1	; 24
		
		PORTC |= 1<<PC1;
		display_number(c);
		_delay_ms(16);
		clear_display();
		PORTC &= ~(1<<PC1);
 332:	a9 98       	cbi	0x15, 1	; 21
 334:	af cf       	rjmp	.-162    	; 0x294 <main+0x6e>

00000336 <__divmodhi4>:
 336:	97 fb       	bst	r25, 7
 338:	09 2e       	mov	r0, r25
 33a:	07 26       	eor	r0, r23
 33c:	0a d0       	rcall	.+20     	; 0x352 <__divmodhi4_neg1>
 33e:	77 fd       	sbrc	r23, 7
 340:	04 d0       	rcall	.+8      	; 0x34a <__divmodhi4_neg2>
 342:	0c d0       	rcall	.+24     	; 0x35c <__udivmodhi4>
 344:	06 d0       	rcall	.+12     	; 0x352 <__divmodhi4_neg1>
 346:	00 20       	and	r0, r0
 348:	1a f4       	brpl	.+6      	; 0x350 <__divmodhi4_exit>

0000034a <__divmodhi4_neg2>:
 34a:	70 95       	com	r23
 34c:	61 95       	neg	r22
 34e:	7f 4f       	sbci	r23, 0xFF	; 255

00000350 <__divmodhi4_exit>:
 350:	08 95       	ret

00000352 <__divmodhi4_neg1>:
 352:	f6 f7       	brtc	.-4      	; 0x350 <__divmodhi4_exit>
 354:	90 95       	com	r25
 356:	81 95       	neg	r24
 358:	9f 4f       	sbci	r25, 0xFF	; 255
 35a:	08 95       	ret

0000035c <__udivmodhi4>:
 35c:	aa 1b       	sub	r26, r26
 35e:	bb 1b       	sub	r27, r27
 360:	51 e1       	ldi	r21, 0x11	; 17
 362:	07 c0       	rjmp	.+14     	; 0x372 <__udivmodhi4_ep>

00000364 <__udivmodhi4_loop>:
 364:	aa 1f       	adc	r26, r26
 366:	bb 1f       	adc	r27, r27
 368:	a6 17       	cp	r26, r22
 36a:	b7 07       	cpc	r27, r23
 36c:	10 f0       	brcs	.+4      	; 0x372 <__udivmodhi4_ep>
 36e:	a6 1b       	sub	r26, r22
 370:	b7 0b       	sbc	r27, r23

00000372 <__udivmodhi4_ep>:
 372:	88 1f       	adc	r24, r24
 374:	99 1f       	adc	r25, r25
 376:	5a 95       	dec	r21
 378:	a9 f7       	brne	.-22     	; 0x364 <__udivmodhi4_loop>
 37a:	80 95       	com	r24
 37c:	90 95       	com	r25
 37e:	bc 01       	movw	r22, r24
 380:	cd 01       	movw	r24, r26
 382:	08 95       	ret

00000384 <_exit>:
 384:	f8 94       	cli

00000386 <__stop_program>:
 386:	ff cf       	rjmp	.-2      	; 0x386 <__stop_program>
